target datalayout = "e-m:e-p270:32:32-p271:32:32-p272:64:64-i64:64-i128:128-f80:128-n8:16:32:64-S128"
target triple = "x86_64-pc-linux-gnu"

; Function Attrs: mustprogress nounwind uwtable
define internal noundef double @_ZN2cvL9normL2SqrIfdEET0_PKT_i(ptr noundef %0, i32 noundef %1) #1 {
  %3 = alloca ptr, align 8
  %4 = alloca i32, align 4
  %5 = alloca double, align 8
  %6 = alloca i32, align 4
  %7 = alloca double, align 8
  store ptr %0, ptr %3, align 8
  store i32 %1, ptr %4, align 4
  store double 0.000000e+00, ptr %5, align 8
  store i32 0, ptr %6, align 4
  br label %8

8:                                                ; preds = %23, %2
  %9 = load i32, ptr %6, align 4
  %10 = load i32, ptr %4, align 4
  %11 = icmp slt i32 %9, %10
  br i1 %11, label %12, label %26

12:                                               ; preds = %8
  %13 = load ptr, ptr %3, align 8
  %14 = load i32, ptr %6, align 4
  %15 = sext i32 %14 to i64
  %16 = getelementptr inbounds float, ptr %13, i64 %15
  %17 = load float, ptr %16, align 4
  %18 = fpext float %17 to double
  store double %18, ptr %7, align 8
  %19 = load double, ptr %7, align 8
  %20 = load double, ptr %7, align 8
  %21 = load double, ptr %5, align 8
  %22 = call double @llvm.fmuladd.f64(double %19, double %20, double %21)
  store double %22, ptr %5, align 8
  br label %23

23:                                               ; preds = %12
  %24 = load i32, ptr %6, align 4
  %25 = add nsw i32 %24, 1
  store i32 %25, ptr %6, align 4
  br label %8, !llvm.loop !24

26:                                               ; preds = %8
  %27 = load double, ptr %5, align 8
  ret double %27
}

; Function Attrs: mustprogress uwtable
define linkonce_odr hidden noundef i32 @_ZN2cv7normL2_IfdEEiPKT_PKhPT0_ii(ptr noundef %0, ptr noundef %1, ptr noundef %2, i32 noundef %3, i32 noundef %4) #0 comdat {
  %6 = alloca ptr, align 8
  %7 = alloca ptr, align 8
  %8 = alloca ptr, align 8
  %9 = alloca i32, align 4
  %10 = alloca i32, align 4
  %11 = alloca double, align 8
  %12 = alloca i32, align 4
  %13 = alloca i32, align 4
  %14 = alloca float, align 4
  store ptr %0, ptr %6, align 8
  store ptr %1, ptr %7, align 8
  store ptr %2, ptr %8, align 8
  store i32 %3, ptr %9, align 4
  store i32 %4, ptr %10, align 4
  %15 = load ptr, ptr %8, align 8
  %16 = load double, ptr %15, align 8
  store double %16, ptr %11, align 8
  %17 = load ptr, ptr %7, align 8
  %18 = icmp ne ptr %17, null
  br i1 %18, label %27, label %19

19:                                               ; preds = %5
  %20 = load ptr, ptr %6, align 8
  %21 = load i32, ptr %9, align 4
  %22 = load i32, ptr %10, align 4
  %23 = mul nsw i32 %21, %22
  %24 = call noundef double @_ZN2cvL9normL2SqrIfdEET0_PKT_i(ptr noundef %20, i32 noundef %23)
  %25 = load double, ptr %11, align 8
  %26 = fadd double %25, %24
  store double %26, ptr %11, align 8
  br label %69

27:                                               ; preds = %5
  store i32 0, ptr %12, align 4
  br label %28

28:                                               ; preds = %61, %27
  %29 = load i32, ptr %12, align 4
  %30 = load i32, ptr %9, align 4
  %31 = icmp slt i32 %29, %30
  br i1 %31, label %32, label %68

32:                                               ; preds = %28
  %33 = load ptr, ptr %7, align 8
  %34 = load i32, ptr %12, align 4
  %35 = sext i32 %34 to i64
  %36 = getelementptr inbounds i8, ptr %33, i64 %35
  %37 = load i8, ptr %36, align 1
  %38 = icmp ne i8 %37, 0
  br i1 %38, label %39, label %60

39:                                               ; preds = %32
  store i32 0, ptr %13, align 4
  br label %40

40:                                               ; preds = %56, %39
  %41 = load i32, ptr %13, align 4
  %42 = load i32, ptr %10, align 4
  %43 = icmp slt i32 %41, %42
  br i1 %43, label %44, label %59

44:                                               ; preds = %40
  %45 = load ptr, ptr %6, align 8
  %46 = load i32, ptr %13, align 4
  %47 = sext i32 %46 to i64
  %48 = getelementptr inbounds float, ptr %45, i64 %47
  %49 = load float, ptr %48, align 4
  store float %49, ptr %14, align 4
  %50 = load float, ptr %14, align 4
  %51 = fpext float %50 to double
  %52 = load float, ptr %14, align 4
  %53 = fpext float %52 to double
  %54 = load double, ptr %11, align 8
  %55 = call double @llvm.fmuladd.f64(double %51, double %53, double %54)
  store double %55, ptr %11, align 8
  br label %56

56:                                               ; preds = %44
  %57 = load i32, ptr %13, align 4
  %58 = add nsw i32 %57, 1
  store i32 %58, ptr %13, align 4
  br label %40, !llvm.loop !22

59:                                               ; preds = %40
  br label %60

60:                                               ; preds = %59, %32
  br label %61

61:                                               ; preds = %60
  %62 = load i32, ptr %12, align 4
  %63 = add nsw i32 %62, 1
  store i32 %63, ptr %12, align 4
  %64 = load i32, ptr %10, align 4
  %65 = load ptr, ptr %6, align 8
  %66 = sext i32 %64 to i64
  %67 = getelementptr inbounds float, ptr %65, i64 %66
  store ptr %67, ptr %6, align 8
  br label %28, !llvm.loop !23

68:                                               ; preds = %28
  br label %69

69:                                               ; preds = %68, %19
  %70 = load double, ptr %11, align 8
  %71 = load ptr, ptr %8, align 8
  store double %70, ptr %71, align 8
  ret i32 0
}

; Function Attrs: mustprogress uwtable
define internal noundef i32 @_ZN2cvL10normL2_32fEPKfPKhPdii(ptr noundef %0, ptr noundef %1, ptr noundef %2, i32 noundef %3, i32 noundef %4) #0 {
  %6 = alloca ptr, align 8
  %7 = alloca ptr, align 8
  %8 = alloca ptr, align 8
  %9 = alloca i32, align 4
  %10 = alloca i32, align 4
  store ptr %0, ptr %6, align 8
  store ptr %1, ptr %7, align 8
  store ptr %2, ptr %8, align 8
  store i32 %3, ptr %9, align 4
  store i32 %4, ptr %10, align 4
  %11 = load ptr, ptr %6, align 8
  %12 = load ptr, ptr %7, align 8
  %13 = load ptr, ptr %8, align 8
  %14 = load i32, ptr %9, align 4
  %15 = load i32, ptr %10, align 4
  %16 = call noundef i32 @_ZN2cv7normL2_IfdEEiPKT_PKhPT0_ii(ptr noundef %11, ptr noundef %12, ptr noundef %13, i32 noundef %14, i32 noundef %15)
  ret i32 %16
}